; Function Attrs: mustprogress uwtable
define internal void @"_ZNSt17_Function_handlerIFvRSo23cmScriptGeneratorIndentRKNSt7__cxx1112basic_stringIcSt11char_traitsIcESaIcEEES9_EZN24cmInstallTargetGenerator23GenerateScriptForConfigES0_S9_S1_E3$_1E9_M_invokeERKSt9_Any_dataS0_OS1_S9_S9_"(ptr nocapture noundef nonnull readonly align 8 dereferenceable(16) %0, ptr noundef nonnull align 8 dereferenceable(8) %1, ptr nocapture noundef nonnull readonly align 4 dereferenceable(4) %2, ptr noundef nonnull align 8 dereferenceable(32) %3, ptr noundef nonnull align 8 dereferenceable(32) %4) #3 align 2 {
  %.val = load ptr, ptr %0, align 8
  %.val5 = load i32, ptr %2, align 4
  tail call void @_ZN24cmInstallTargetGenerator23AddInstallNamePatchRuleERSo23cmScriptGeneratorIndentRKNSt7__cxx1112basic_stringIcSt11char_traitsIcESaIcEEES9_(ptr noundef nonnull align 8 dereferenceable(282) %.val, ptr noundef nonnull align 8 dereferenceable(8) %1, i32 %.val5, ptr noundef nonnull align 8 dereferenceable(32) %3, ptr noundef nonnull align 8 dereferenceable(32) %4)
  tail call void @_ZN24cmInstallTargetGenerator19AddChrpathPatchRuleERSo23cmScriptGeneratorIndentRKNSt7__cxx1112basic_stringIcSt11char_traitsIcESaIcEEES9_(ptr noundef nonnull align 8 dereferenceable(282) %.val, ptr noundef nonnull align 8 dereferenceable(8) %1, i32 %.val5, ptr noundef nonnull align 8 dereferenceable(32) %3, ptr noundef nonnull align 8 dereferenceable(32) %4)
  tail call void @_ZN24cmInstallTargetGenerator23AddUniversalInstallRuleERSo23cmScriptGeneratorIndentRKNSt7__cxx1112basic_stringIcSt11char_traitsIcESaIcEEE(ptr noundef nonnull align 8 dereferenceable(282) %.val, ptr noundef nonnull align 8 dereferenceable(8) %1, i32 %.val5, ptr noundef nonnull align 8 dereferenceable(32) %4)
  tail call void @_ZN24cmInstallTargetGenerator13AddRanlibRuleERSo23cmScriptGeneratorIndentRKNSt7__cxx1112basic_stringIcSt11char_traitsIcESaIcEEE(ptr noundef nonnull align 8 dereferenceable(282) %.val, ptr noundef nonnull align 8 dereferenceable(8) %1, i32 %.val5, ptr noundef nonnull align 8 dereferenceable(32) %4)
  tail call void @_ZN24cmInstallTargetGenerator12AddStripRuleERSo23cmScriptGeneratorIndentRKNSt7__cxx1112basic_stringIcSt11char_traitsIcESaIcEEE(ptr noundef nonnull align 8 dereferenceable(282) %.val, ptr noundef nonnull align 8 dereferenceable(8) %1, i32 %.val5, ptr noundef nonnull align 8 dereferenceable(32) %4)
  ret void
}